; Function Attrs: nounwind uwtable
define ptr @l_Lean_Elab_InfoTree_getCompletionInfos___lambda__1(ptr noundef %0, ptr noundef %1, ptr noundef %2) local_unnamed_addr #0 {
  %4 = ptrtoint ptr %1 to i64
  %5 = and i64 %4, 1
  %.not.i13 = icmp eq i64 %5, 0
  br i1 %.not.i13, label %9, label %6

6:                                                ; preds = %3
  %7 = lshr i64 %4, 1
  %8 = trunc i64 %7 to i32
  br label %lean_obj_tag.exit

9:                                                ; preds = %3
  %10 = getelementptr i8, ptr %1, i64 4
  %.val.i = load i32, ptr %10, align 4
  %11 = lshr i32 %.val.i, 24
  br label %lean_obj_tag.exit

lean_obj_tag.exit:                                ; preds = %6, %9
  %.0.i = phi i32 [ %8, %6 ], [ %11, %9 ]
  %12 = icmp eq i32 %.0.i, 7
  br i1 %12, label %13, label %31

13:                                               ; preds = %lean_obj_tag.exit
  %14 = getelementptr inbounds nuw i8, ptr %1, i64 8
  %15 = load ptr, ptr %14, align 8, !tbaa !9
  %16 = ptrtoint ptr %15 to i64
  %17 = and i64 %16, 1
  %.not16 = icmp eq i64 %17, 0
  br i1 %.not16, label %18, label %lean_inc.exit

18:                                               ; preds = %13
  %.val.i14 = load i32, ptr %15, align 4, !tbaa !4
  %19 = icmp sgt i32 %.val.i14, 0
  br i1 %19, label %20, label %22, !prof !15

20:                                               ; preds = %18
  %21 = add nuw i32 %.val.i14, 1
  store i32 %21, ptr %15, align 4, !tbaa !4
  br label %lean_inc.exit

22:                                               ; preds = %18
  %.not.i15 = icmp eq i32 %.val.i14, 0
  br i1 %.not.i15, label %lean_inc.exit, label %23

23:                                               ; preds = %22
  tail call void @lean_inc_ref_cold(ptr noundef nonnull %15) #7
  br label %lean_inc.exit

lean_inc.exit:                                    ; preds = %23, %22, %20, %13
  tail call void @lean_inc_heartbeat() #7
  %24 = tail call noalias ptr @mi_malloc_small(i64 noundef 24) #7
  %25 = icmp eq ptr %24, null
  br i1 %25, label %26, label %lean_alloc_ctor.exit

26:                                               ; preds = %lean_inc.exit
  tail call void @lean_internal_panic_out_of_memory() #8
  unreachable

lean_alloc_ctor.exit:                             ; preds = %lean_inc.exit
  %27 = getelementptr inbounds nuw i8, ptr %24, i64 4
  store i32 1, ptr %24, align 4, !tbaa !4
  store i32 131096, ptr %27, align 4
  %28 = getelementptr inbounds nuw i8, ptr %24, i64 8
  store ptr %0, ptr %28, align 8, !tbaa !9
  %29 = getelementptr inbounds nuw i8, ptr %24, i64 16
  store ptr %15, ptr %29, align 8, !tbaa !9
  %30 = tail call ptr @lean_array_push(ptr noundef %2, ptr noundef nonnull %24) #7
  br label %lean_dec.exit

31:                                               ; preds = %lean_obj_tag.exit
  %32 = ptrtoint ptr %0 to i64
  %33 = and i64 %32, 1
  %.not = icmp eq i64 %33, 0
  br i1 %.not, label %34, label %lean_dec.exit

34:                                               ; preds = %31
  %35 = load i32, ptr %0, align 4, !tbaa !4
  %36 = icmp sgt i32 %35, 1
  br i1 %36, label %37, label %39, !prof !15

37:                                               ; preds = %34
  %38 = add nsw i32 %35, -1
  store i32 %38, ptr %0, align 4, !tbaa !4
  br label %lean_dec.exit

39:                                               ; preds = %34
  %.not.i = icmp eq i32 %35, 0
  br i1 %.not.i, label %lean_dec.exit, label %40

40:                                               ; preds = %39
  tail call void @lean_dec_ref_cold(ptr noundef nonnull %0) #7
  br label %lean_dec.exit

lean_dec.exit:                                    ; preds = %31, %37, %39, %40, %lean_alloc_ctor.exit
  %.0 = phi ptr [ %30, %lean_alloc_ctor.exit ], [ %2, %40 ], [ %2, %39 ], [ %2, %37 ], [ %2, %31 ]
  ret ptr %.0
}